target datalayout = "e-m:e-p270:32:32-p271:32:32-p272:64:64-i64:64-i128:128-f80:128-n8:16:32:64-S128"
target triple = "x86_64-pc-linux-gnu"

%struct.index_state = type { ptr, i32, i32, i32, i32, ptr, ptr, ptr, %struct.cache_time, i8, i32, %struct.hashmap, %struct.hashmap, %struct.object_id, ptr, ptr, ptr, ptr, ptr, ptr, ptr }
%struct.cache_time = type { i32, i32 }
%struct.hashmap = type { ptr, ptr, ptr, i32, i32, i32, i32, i8 }
%struct.object_id = type { [32 x i8], i32 }
%struct.cache_entry = type { %struct.hashmap_entry, %struct.stat_data, i32, i32, i32, i32, i32, %struct.object_id, [0 x i8] }
%struct.hashmap_entry = type { ptr, i32 }
%struct.stat_data = type { %struct.cache_time, %struct.cache_time, i32, i32, i32, i32, i32 }

; Function Attrs: nounwind uwtable
define dso_local void @remove_marked_cache_entries(ptr noundef %0, i32 noundef %1) #0 {
  %3 = alloca ptr, align 8
  %4 = alloca i32, align 4
  %5 = alloca ptr, align 8
  %6 = alloca i32, align 4
  %7 = alloca i32, align 4
  %8 = alloca i32, align 4
  store ptr %0, ptr %3, align 8, !tbaa !4
  store i32 %1, ptr %4, align 4, !tbaa !9
  call void @llvm.lifetime.start.p0(i64 8, ptr %5) #12
  %9 = load ptr, ptr %3, align 8, !tbaa !4
  %10 = getelementptr inbounds nuw %struct.index_state, ptr %9, i32 0, i32 0
  %11 = load ptr, ptr %10, align 8, !tbaa !13
  store ptr %11, ptr %5, align 8, !tbaa !68
  call void @llvm.lifetime.start.p0(i64 4, ptr %6) #12
  call void @llvm.lifetime.start.p0(i64 4, ptr %7) #12
  store i32 0, ptr %7, align 4, !tbaa !9
  store i32 0, ptr %6, align 4, !tbaa !9
  br label %12

12:                                               ; preds = %73, %2
  %13 = load i32, ptr %6, align 4, !tbaa !9
  %14 = load ptr, ptr %3, align 8, !tbaa !4
  %15 = getelementptr inbounds nuw %struct.index_state, ptr %14, i32 0, i32 2
  %16 = load i32, ptr %15, align 4, !tbaa !34
  %17 = icmp ult i32 %13, %16
  br i1 %17, label %18, label %76

18:                                               ; preds = %12
  %19 = load ptr, ptr %5, align 8, !tbaa !68
  %20 = load i32, ptr %6, align 4, !tbaa !9
  %21 = zext i32 %20 to i64
  %22 = getelementptr inbounds nuw ptr, ptr %19, i64 %21
  %23 = load ptr, ptr %22, align 8, !tbaa !29
  %24 = getelementptr inbounds nuw %struct.cache_entry, ptr %23, i32 0, i32 3
  %25 = load i32, ptr %24, align 8, !tbaa !9
  %26 = and i32 %25, 131072
  %27 = icmp ne i32 %26, 0
  br i1 %27, label %28, label %61

28:                                               ; preds = %18
  %29 = load i32, ptr %4, align 4, !tbaa !9
  %30 = icmp ne i32 %29, 0
  br i1 %30, label %31, label %48

31:                                               ; preds = %28
  %32 = load ptr, ptr %3, align 8, !tbaa !4
  %33 = load ptr, ptr %5, align 8, !tbaa !68
  %34 = load i32, ptr %6, align 4, !tbaa !9
  %35 = zext i32 %34 to i64
  %36 = getelementptr inbounds nuw ptr, ptr %33, i64 %35
  %37 = load ptr, ptr %36, align 8, !tbaa !29
  %38 = getelementptr inbounds nuw %struct.cache_entry, ptr %37, i32 0, i32 8
  %39 = getelementptr inbounds [0 x i8], ptr %38, i64 0, i64 0
  call void @cache_tree_invalidate_path(ptr noundef %32, ptr noundef %39)
  %40 = load ptr, ptr %3, align 8, !tbaa !4
  %41 = load ptr, ptr %5, align 8, !tbaa !68
  %42 = load i32, ptr %6, align 4, !tbaa !9
  %43 = zext i32 %42 to i64
  %44 = getelementptr inbounds nuw ptr, ptr %41, i64 %43
  %45 = load ptr, ptr %44, align 8, !tbaa !29
  %46 = getelementptr inbounds nuw %struct.cache_entry, ptr %45, i32 0, i32 8
  %47 = getelementptr inbounds [0 x i8], ptr %46, i64 0, i64 0
  call void @untracked_cache_remove_from_index(ptr noundef %40, ptr noundef %47)
  br label %48

48:                                               ; preds = %31, %28
  %49 = load ptr, ptr %3, align 8, !tbaa !4
  %50 = load ptr, ptr %5, align 8, !tbaa !68
  %51 = load i32, ptr %6, align 4, !tbaa !9
  %52 = zext i32 %51 to i64
  %53 = getelementptr inbounds nuw ptr, ptr %50, i64 %52
  %54 = load ptr, ptr %53, align 8, !tbaa !29
  call void @remove_name_hash(ptr noundef %49, ptr noundef %54)
  %55 = load ptr, ptr %3, align 8, !tbaa !4
  %56 = load ptr, ptr %5, align 8, !tbaa !68
  %57 = load i32, ptr %6, align 4, !tbaa !9
  %58 = zext i32 %57 to i64
  %59 = getelementptr inbounds nuw ptr, ptr %56, i64 %58
  %60 = load ptr, ptr %59, align 8, !tbaa !29
  call void @save_or_free_index_entry(ptr noundef %55, ptr noundef %60)
  br label %72

61:                                               ; preds = %18
  %62 = load ptr, ptr %5, align 8, !tbaa !68
  %63 = load i32, ptr %6, align 4, !tbaa !9
  %64 = zext i32 %63 to i64
  %65 = getelementptr inbounds nuw ptr, ptr %62, i64 %64
  %66 = load ptr, ptr %65, align 8, !tbaa !29
  %67 = load ptr, ptr %5, align 8, !tbaa !68
  %68 = load i32, ptr %7, align 4, !tbaa !9
  %69 = add i32 %68, 1
  store i32 %69, ptr %7, align 4, !tbaa !9
  %70 = zext i32 %68 to i64
  %71 = getelementptr inbounds nuw ptr, ptr %67, i64 %70
  store ptr %66, ptr %71, align 8, !tbaa !29
  br label %72

72:                                               ; preds = %61, %48
  br label %73

73:                                               ; preds = %72
  %74 = load i32, ptr %6, align 4, !tbaa !9
  %75 = add i32 %74, 1
  store i32 %75, ptr %6, align 4, !tbaa !9
  br label %12, !llvm.loop !69

76:                                               ; preds = %12
  %77 = load i32, ptr %7, align 4, !tbaa !9
  %78 = load ptr, ptr %3, align 8, !tbaa !4
  %79 = getelementptr inbounds nuw %struct.index_state, ptr %78, i32 0, i32 2
  %80 = load i32, ptr %79, align 4, !tbaa !34
  %81 = icmp eq i32 %77, %80
  br i1 %81, label %82, label %83

82:                                               ; preds = %76
  store i32 1, ptr %8, align 4
  br label %91

83:                                               ; preds = %76
  %84 = load ptr, ptr %3, align 8, !tbaa !4
  %85 = getelementptr inbounds nuw %struct.index_state, ptr %84, i32 0, i32 4
  %86 = load i32, ptr %85, align 4, !tbaa !33
  %87 = or i32 %86, 4
  store i32 %87, ptr %85, align 4, !tbaa !33
  %88 = load i32, ptr %7, align 4, !tbaa !9
  %89 = load ptr, ptr %3, align 8, !tbaa !4
  %90 = getelementptr inbounds nuw %struct.index_state, ptr %89, i32 0, i32 2
  store i32 %88, ptr %90, align 4, !tbaa !34
  store i32 0, ptr %8, align 4
  br label %91

91:                                               ; preds = %83, %82
  call void @llvm.lifetime.end.p0(i64 4, ptr %7) #12
  call void @llvm.lifetime.end.p0(i64 4, ptr %6) #12
  call void @llvm.lifetime.end.p0(i64 8, ptr %5) #12
  %92 = load i32, ptr %8, align 4
  switch i32 %92, label %94 [
    i32 0, label %93
    i32 1, label %93
  ]

93:                                               ; preds = %91, %91
  ret void

94:                                               ; preds = %91
  unreachable
}