; Function Attrs: nounwind uwtable
define dso_local void @remove_marked_cache_entries(ptr noundef %0, i32 noundef %1) local_unnamed_addr #0 {
  %3 = load ptr, ptr %0, align 8, !tbaa !4
  %4 = getelementptr inbounds nuw i8, ptr %0, i64 12
  %5 = load i32, ptr %4, align 4, !tbaa !34
  %.not35 = icmp eq i32 %5, 0
  br i1 %.not35, label %._crit_edge.thread, label %.lr.ph

.lr.ph:                                           ; preds = %2
  %.not29 = icmp eq i32 %1, 0
  br i1 %.not29, label %.lr.ph.split.us, label %.lr.ph.split

.lr.ph.split.us:                                  ; preds = %.lr.ph, %18
  %6 = phi i32 [ %19, %18 ], [ %5, %.lr.ph ]
  %indvars.iv40 = phi i64 [ %indvars.iv.next41, %18 ], [ 0, %.lr.ph ]
  %.032.us = phi i32 [ %.1.us, %18 ], [ 0, %.lr.ph ]
  %7 = getelementptr inbounds nuw ptr, ptr %3, i64 %indvars.iv40
  %8 = load ptr, ptr %7, align 8, !tbaa !25
  %9 = getelementptr inbounds nuw i8, ptr %8, i64 56
  %10 = load i32, ptr %9, align 8, !tbaa !32
  %11 = and i32 %10, 131072
  %.not.us = icmp eq i32 %11, 0
  br i1 %.not.us, label %14, label %12

12:                                               ; preds = %.lr.ph.split.us
  tail call void @remove_name_hash(ptr noundef nonnull %0, ptr noundef nonnull %8) #30
  %13 = load ptr, ptr %7, align 8, !tbaa !25
  tail call void @save_or_free_index_entry(ptr noundef nonnull %0, ptr noundef %13) #30
  %.pre43 = load i32, ptr %4, align 4, !tbaa !34
  br label %18

14:                                               ; preds = %.lr.ph.split.us
  %15 = add i32 %.032.us, 1
  %16 = zext i32 %.032.us to i64
  %17 = getelementptr inbounds nuw ptr, ptr %3, i64 %16
  store ptr %8, ptr %17, align 8, !tbaa !25
  br label %18

18:                                               ; preds = %14, %12
  %19 = phi i32 [ %.pre43, %12 ], [ %6, %14 ]
  %.1.us = phi i32 [ %.032.us, %12 ], [ %15, %14 ]
  %indvars.iv.next41 = add nuw nsw i64 %indvars.iv40, 1
  %20 = zext i32 %19 to i64
  %21 = icmp samesign ult i64 %indvars.iv.next41, %20
  br i1 %21, label %.lr.ph.split.us, label %._crit_edge, !llvm.loop !77

.lr.ph.split:                                     ; preds = %.lr.ph, %38
  %22 = phi i32 [ %39, %38 ], [ %5, %.lr.ph ]
  %indvars.iv = phi i64 [ %indvars.iv.next, %38 ], [ 0, %.lr.ph ]
  %.032 = phi i32 [ %.1, %38 ], [ 0, %.lr.ph ]
  %23 = getelementptr inbounds nuw ptr, ptr %3, i64 %indvars.iv
  %24 = load ptr, ptr %23, align 8, !tbaa !25
  %25 = getelementptr inbounds nuw i8, ptr %24, i64 56
  %26 = load i32, ptr %25, align 8, !tbaa !32
  %27 = and i32 %26, 131072
  %.not = icmp eq i32 %27, 0
  br i1 %.not, label %34, label %28

28:                                               ; preds = %.lr.ph.split
  %29 = getelementptr inbounds nuw i8, ptr %24, i64 108
  tail call void @cache_tree_invalidate_path(ptr noundef nonnull %0, ptr noundef nonnull %29) #30
  %30 = load ptr, ptr %23, align 8, !tbaa !25
  %31 = getelementptr inbounds nuw i8, ptr %30, i64 108
  tail call void @untracked_cache_remove_from_index(ptr noundef nonnull %0, ptr noundef nonnull %31) #30
  %32 = load ptr, ptr %23, align 8, !tbaa !25
  tail call void @remove_name_hash(ptr noundef nonnull %0, ptr noundef %32) #30
  %33 = load ptr, ptr %23, align 8, !tbaa !25
  tail call void @save_or_free_index_entry(ptr noundef nonnull %0, ptr noundef %33) #30
  %.pre = load i32, ptr %4, align 4, !tbaa !34
  br label %38

34:                                               ; preds = %.lr.ph.split
  %35 = add i32 %.032, 1
  %36 = zext i32 %.032 to i64
  %37 = getelementptr inbounds nuw ptr, ptr %3, i64 %36
  store ptr %24, ptr %37, align 8, !tbaa !25
  br label %38

38:                                               ; preds = %28, %34
  %39 = phi i32 [ %.pre, %28 ], [ %22, %34 ]
  %.1 = phi i32 [ %.032, %28 ], [ %35, %34 ]
  %indvars.iv.next = add nuw nsw i64 %indvars.iv, 1
  %40 = zext i32 %39 to i64
  %41 = icmp samesign ult i64 %indvars.iv.next, %40
  br i1 %41, label %.lr.ph.split, label %._crit_edge, !llvm.loop !77

._crit_edge:                                      ; preds = %38, %18
  %.0.lcssa = phi i32 [ %.1.us, %18 ], [ %.1, %38 ]
  %.lcssa = phi i32 [ %19, %18 ], [ %39, %38 ]
  %42 = icmp eq i32 %.0.lcssa, %.lcssa
  br i1 %42, label %._crit_edge.thread, label %43

43:                                               ; preds = %._crit_edge
  %44 = getelementptr inbounds nuw i8, ptr %0, i64 20
  %45 = load i32, ptr %44, align 4, !tbaa !33
  %46 = or i32 %45, 4
  store i32 %46, ptr %44, align 4, !tbaa !33
  store i32 %.0.lcssa, ptr %4, align 4, !tbaa !34
  br label %._crit_edge.thread

._crit_edge.thread:                               ; preds = %2, %._crit_edge, %43
  ret void
}